(dp1
(I0
I2
I0
I1
tp2
ccopy_reg
_reconstructor
p3
(cxfel.cftbx.detector.cspad_cbf_tbx
basis
p4
c__builtin__
object
p5
NtRp6
(dp7
S'translation'
p8
g3
(cscitbx.matrix
col
p9
g5
NtRp10
(dp11
S'elems'
p12
(F10.827120000000003
I0
I0
tp13
sS'n'
(I3
I1
tp14
sbsS'include_translation'
p15
I01
sS'orientation'
p16
g3
(g9
g5
NtRp17
(dp18
g12
(F1
F0
F0
F0
tp19
sS'n'
(I4
I1
tp20
sbsbs(I0
I2
I2
I1
tp21
g3
(g4
g5
NtRp22
(dp23
g8
g3
(g9
g5
NtRp24
(dp25
g12
(F10.827120000000006
I0
I0
tp26
sS'n'
(I3
I1
tp27
sbsg15
I01
sg16
g17
sbs(I0
I2
I1
tp28
g3
(g4
g5
NtRp29
(dp30
g8
g3
(g9
g5
NtRp31
(dp32
g12
(F21.803000000000001
F10.44
F-0.017000000000000001
tp33
sS'n'
(I3
I1
tp34
sbsg15
I01
sg16
g3
(g9
g5
NtRp35
(dp36
g12
(F0.99999830792692479
F-0.0009592331223185189
F0.0010405734285904766
F-0.0011752540339554048
tp37
sS'n'
(I4
I1
tp38
sbsbs(I0
I0
I5
tp39
g3
(g4
g5
NtRp40
(dp41
g8
g3
(g9
g5
NtRp42
(dp43
g12
(F68.653000000000006
F79.632999999999996
F0.078
tp44
sS'n'
(I3
I1
tp45
sbsg15
I01
sg16
g3
(g9
g5
NtRp46
(dp47
g12
(F0.0014308638304876505
F0.0014166826056326146
F-0.0025567922892804035
F0.99999470421211878
tp48
sS'n'
(I4
I1
tp49
sbsbs(I0
I2
I3
tp50
g3
(g4
g5
NtRp51
(dp52
g8
g3
(g9
g5
NtRp53
(dp54
g12
(F10.58
F68.343999999999994
F0.058000000000000003
tp55
sS'n'
(I3
I1
tp56
sbsg15
I01
sg16
g3
(g9
g5
NtRp57
(dp58
g12
(F0.706725961315947
F0.00071080901181873161
F0.00090012774071065549
F-0.7074864663883329
tp59
sS'n'
(I4
I1
tp60
sbsbs(I0
I0
I6
I1
tp61
g3
(g4
g5
NtRp62
(dp63
g8
g3
(g9
g5
NtRp64
(dp65
g12
(F10.827120000000003
I0
I0
tp66
sS'n'
(I3
I1
tp67
sbsg15
I01
sg16
g17
sbs(I0
I0
I4
I1
tp68
g3
(g4
g5
NtRp69
(dp70
g8
g3
(g9
g5
NtRp71
(dp72
g12
(F10.827119999999992
I0
I0
tp73
sS'n'
(I3
I1
tp74
sbsg15
I01
sg16
g17
sbs(I0
I2
I5
I1
tp75
g3
(g4
g5
NtRp76
(dp77
g8
g3
(g9
g5
NtRp78
(dp79
g12
(F10.827119999999981
I0
I0
tp80
sS'n'
(I3
I1
tp81
sbsg15
I01
sg16
g17
sbs(I0
I0
I2
I1
tp82
g3
(g4
g5
NtRp83
(dp84
g8
g3
(g9
g5
NtRp85
(dp86
g12
(F10.827120000000015
I0
I0
tp87
sS'n'
(I3
I1
tp88
sbsg15
I01
sg16
g17
sbs(I0
I2
I7
I1
tp89
g3
(g4
g5
NtRp90
(dp91
g8
g3
(g9
g5
NtRp92
(dp93
g12
(F10.827120000000003
I0
I0
tp94
sS'n'
(I3
I1
tp95
sbsg15
I01
sg16
g17
sbs(I0
I2
I7
tp96
g3
(g4
g5
NtRp97
(dp98
g8
g3
(g9
g5
NtRp99
(dp100
g12
(F54.734000000000002
F21.666
F0.012
tp101
sS'n'
(I3
I1
tp102
sbsg15
I01
sg16
g3
(g9
g5
NtRp103
(dp104
g12
(F0.70686872247672439
F-0.00014998014728959192
F-0.00045242234859357898
F-0.70734459919059067
tp105
sS'n'
(I4
I1
tp106
sbsbs(I0
I0
I0
I1
tp107
g3
(g4
g5
NtRp108
(dp109
g8
g3
(g9
g5
NtRp110
(dp111
g12
(F10.827120000000008
I0
I0
tp112
sS'n'
(I3
I1
tp113
sbsg15
I01
sg16
g17
sbs(I0
I2
I1
I1
tp114
g3
(g4
g5
NtRp115
(dp116
g8
g3
(g9
g5
NtRp117
(dp118
g12
(F10.827120000000003
I0
I0
tp119
sS'n'
(I3
I1
tp120
sbsg15
I01
sg16
g17
sbs(I0
I2
I3
I1
tp121
g3
(g4
g5
NtRp122
(dp123
g8
g3
(g9
g5
NtRp124
(dp125
g12
(F10.827120000000006
I0
I0
tp126
sS'n'
(I3
I1
tp127
sbsg15
I01
sg16
g17
sbs(I0
I1
tp128
g3
(g4
g5
NtRp129
(dp130
g8
g3
(g9
g5
NtRp131
(dp132
g12
(F-2.7469999999999999
F5.5739999999999998
F0.14799999999999999
tp133
sS'n'
(I3
I1
tp134
sbsg15
I01
sg16
g3
(g9
g5
NtRp135
(dp136
g12
(F0.99999842168435504
F0.00045017184758223831
F0.0016449349083492433
F-0.00049815986763043101
tp137
sS'n'
(I4
I1
tp138
sbsbs(I0
tp139
g3
(g4
g5
NtRp140
(dp141
g8
g3
(g9
g5
NtRp142
(dp143
g12
(F0.014
F0
F0
tp144
sS'n'
(I3
I1
tp145
sbsg15
I01
sg16
g3
(g9
g5
NtRp146
(dp147
g12
(F0.99999861219554853
F0.0010629017527289
F0.0012829054162156771
F-7.3078680700646048e-07
tp148
sS'n'
(I4
I1
tp149
sbsbs(I0
I3
I4
I0
tp150
g3
(g4
g5
NtRp151
(dp152
g8
g3
(g9
g5
NtRp153
(dp154
g12
(F-10.827119999999992
I0
I0
tp155
sS'n'
(I3
I1
tp156
sbsg15
I01
sg16
g17
sbs(I0
I0
I7
I1
tp157
g3
(g4
g5
NtRp158
(dp159
g8
g3
(g9
g5
NtRp160
(dp161
g12
(F10.827120000000001
I0
I0
tp162
sS'n'
(I3
I1
tp163
sbsg15
I01
sg16
g17
sbs(I0
I1
I0
tp164
g3
(g4
g5
NtRp165
(dp166
g8
g3
(g9
g5
NtRp167
(dp168
g12
(F21.832999999999998
F33.344999999999999
F0.114
tp169
sS'n'
(I3
I1
tp170
sbsg15
I01
sg16
g3
(g9
g5
NtRp171
(dp172
g12
(F0.99999425007125609
F-0.0023201795767249802
F-0.00085423044280684012
F-0.0023209656412834147
tp173
sS'n'
(I4
I1
tp174
sbsbs(I0
I0
I5
I1
tp175
g3
(g4
g5
NtRp176
(dp177
g8
g3
(g9
g5
NtRp178
(dp179
g12
(F10.827120000000006
I0
I0
tp180
sS'n'
(I3
I1
tp181
sbsg15
I01
sg16
g17
sbs(I0
I3
I0
I0
tp182
g3
(g4
g5
NtRp183
(dp184
g8
g3
(g9
g5
NtRp185
(dp186
g12
(F-10.827119999999997
I0
I0
tp187
sS'n'
(I3
I1
tp188
sbsg15
I01
sg16
g17
sbs(I0
I1
I2
tp189
g3
(g4
g5
NtRp190
(dp191
g8
g3
(g9
g5
NtRp192
(dp193
g12
(F33.417000000000002
F68.415000000000006
F0.098000000000000004
tp194
sS'n'
(I3
I1
tp195
sbsg15
I01
sg16
g3
(g9
g5
NtRp196
(dp197
g12
(F0.70685631663226967
F0.00067632445883304172
F-0.00075159521936931934
F-0.70735643442815499
tp198
sS'n'
(I4
I1
tp199
sbsbs(I0
I0
I3
I1
tp200
g3
(g4
g5
NtRp201
(dp202
g8
g3
(g9
g5
NtRp203
(dp204
g12
(F10.827120000000001
I0
I0
tp205
sS'n'
(I3
I1
tp206
sbsg15
I01
sg16
g17
sbs(I0
I3
I2
I0
tp207
g3
(g4
g5
NtRp208
(dp209
g8
g3
(g9
g5
NtRp210
(dp211
g12
(F-10.827120000000008
I0
I0
tp212
sS'n'
(I3
I1
tp213
sbsg15
I01
sg16
g17
sbs(I0
I2
I4
I0
tp214
g3
(g4
g5
NtRp215
(dp216
g8
g3
(g9
g5
NtRp217
(dp218
g12
(F-10.827120000000008
I0
I0
tp219
sS'n'
(I3
I1
tp220
sbsg15
I01
sg16
g17
sbs(I0
I1
I4
tp221
g3
(g4
g5
NtRp222
(dp223
g8
g3
(g9
g5
NtRp224
(dp225
g12
(F68.643000000000001
F56.735999999999997
F0.107
tp226
sS'n'
(I3
I1
tp227
sbsg15
I01
sg16
g3
(g9
g5
NtRp228
(dp229
g12
(F-0.00010532570974269358
F0.00026112016162700068
F-0.00064955167526999124
F0.99999974940265735
tp230
sS'n'
(I4
I1
tp231
sbsbs(I0
I0
I1
I1
tp232
g3
(g4
g5
NtRp233
(dp234
g8
g3
(g9
g5
NtRp235
(dp236
g12
(F10.827120000000003
I0
I0
tp237
sS'n'
(I3
I1
tp238
sbsg15
I01
sg16
g17
sbs(I0
I2
I6
I0
tp239
g3
(g4
g5
NtRp240
(dp241
g8
g3
(g9
g5
NtRp242
(dp243
g12
(F-10.827120000000008
I0
I0
tp244
sS'n'
(I3
I1
tp245
sbsg15
I01
sg16
g17
sbs(I0
I0
I7
tp246
g3
(g4
g5
NtRp247
(dp248
g8
g3
(g9
g5
NtRp249
(dp250
g12
(F54.904000000000003
F21.631
F-0.016
tp251
sS'n'
(I3
I1
tp252
sbsg15
I01
sg16
g3
(g9
g5
NtRp253
(dp254
g12
(F0.70710504134419261
F-0.00032297340078558647
F0.00021436833749487481
F-0.70710841477104902
tp255
sS'n'
(I4
I1
tp256
sbsbs(I0
I1
I6
tp257
g3
(g4
g5
NtRp258
(dp259
g8
g3
(g9
g5
NtRp260
(dp261
g12
(F77.509
F21.100999999999999
F0.10299999999999999
tp262
sS'n'
(I3
I1
tp263
sbsg15
I01
sg16
g3
(g9
g5
NtRp264
(dp265
g12
(F0.70964495537520178
F0.0024143108687317682
F0.00048662692400083449
F-0.70455515866949248
tp266
sS'n'
(I4
I1
tp267
sbsbs(I0
I2
I0
I0
tp268
g3
(g4
g5
NtRp269
(dp270
g8
g3
(g9
g5
NtRp271
(dp272
g12
(F-10.827119999999995
I0
I0
tp273
sS'n'
(I3
I1
tp274
sbsg15
I01
sg16
g17
sbs(I0
I2
I7
I0
tp275
g3
(g4
g5
NtRp276
(dp277
g8
g3
(g9
g5
NtRp278
(dp279
g12
(F-10.827119999999995
I0
I0
tp280
sS'n'
(I3
I1
tp281
sbsg15
I01
sg16
g17
sbs(I0
I1
I6
I0
tp282
g3
(g4
g5
NtRp283
(dp284
g8
g3
(g9
g5
NtRp285
(dp286
g12
(F-10.827119999999999
I0
I0
tp287
sS'n'
(I3
I1
tp288
sbsg15
I01
sg16
g17
sbs(I0
I2
I2
I0
tp289
g3
(g4
g5
NtRp290
(dp291
g8
g3
(g9
g5
NtRp292
(dp293
g12
(F-10.827120000000006
I0
I0
tp294
sS'n'
(I3
I1
tp295
sbsg15
I01
sg16
g17
sbs(I0
I1
I4
I0
tp296
g3
(g4
g5
NtRp297
(dp298
g8
g3
(g9
g5
NtRp299
(dp300
g12
(F-10.827120000000001
I0
I0
tp301
sS'n'
(I3
I1
tp302
sbsg15
I01
sg16
g17
sbs(I0
I0
I3
tp303
g3
(g4
g5
NtRp304
(dp305
g8
g3
(g9
g5
NtRp306
(dp307
g12
(F10.539
F68.316999999999993
F0.10199999999999999
tp308
sS'n'
(I3
I1
tp309
sbsg15
I01
sg16
g3
(g9
g5
NtRp310
(dp311
g12
(F0.70747811115149395
F0.00057187606661930331
F0.0019545039846891551
F-0.70673232210891024
tp312
sS'n'
(I4
I1
tp313
sbsbs(I0
I3
I3
tp314
g3
(g4
g5
NtRp315
(dp316
g8
g3
(g9
g5
NtRp317
(dp318
g12
(F10.613
F68.540999999999997
F0.060999999999999999
tp319
sS'n'
(I3
I1
tp320
sbsg15
I01
sg16
g3
(g9
g5
NtRp321
(dp322
g12
(F0.70661199020137144
F0.00024035013517894306
F0.0022902857017454326
F-0.70759747888674229
tp323
sS'n'
(I4
I1
tp324
sbsbs(I0
I1
I2
I0
tp325
g3
(g4
g5
NtRp326
(dp327
g8
g3
(g9
g5
NtRp328
(dp329
g12
(F-10.827119999999992
I0
I0
tp330
sS'n'
(I3
I1
tp331
sbsg15
I01
sg16
g17
sbs(I0
I3
I5
I1
tp332
g3
(g4
g5
NtRp333
(dp334
g8
g3
(g9
g5
NtRp335
(dp336
g12
(F10.827119999999994
I0
I0
tp337
sS'n'
(I3
I1
tp338
sbsg15
I01
sg16
g17
sbs(I0
I0
I1
tp339
g3
(g4
g5
NtRp340
(dp341
g8
g3
(g9
g5
NtRp342
(dp343
g12
(F21.771999999999998
F10.523999999999999
F0.031
tp344
sS'n'
(I3
I1
tp345
sbsg15
I01
sg16
g3
(g9
g5
NtRp346
(dp347
g12
(F0.99999628530358231
F-0.00030139203644441215
F0.0025420908894973259
F0.00093611739954399759
tp348
sS'n'
(I4
I1
tp349
sbsbs(I0
I1
I0
I0
tp350
g3
(g4
g5
NtRp351
(dp352
g8
g3
(g9
g5
NtRp353
(dp354
g12
(F-10.827120000000001
I0
I0
tp355
sS'n'
(I3
I1
tp356
sbsg15
I01
sg16
g17
sbs(I0
I3
I1
tp357
g3
(g4
g5
NtRp358
(dp359
g8
g3
(g9
g5
NtRp360
(dp361
g12
(F21.777000000000001
F10.451000000000001
F-0.028000000000000001
tp362
sS'n'
(I3
I1
tp363
sbsg15
I01
sg16
g3
(g9
g5
NtRp364
(dp365
g12
(F0.99999914704738735
F-0.0002322588412740193
F0.0012848317474801038
F3.4171754508503292e-05
tp366
sS'n'
(I4
I1
tp367
sbsbs(I0
I0
I6
I0
tp368
g3
(g4
g5
NtRp369
(dp370
g8
g3
(g9
g5
NtRp371
(dp372
g12
(F-10.827119999999995
I0
I0
tp373
sS'n'
(I3
I1
tp374
sbsg15
I01
sg16
g17
sbs(I0
I3
I7
I1
tp375
g3
(g4
g5
NtRp376
(dp377
g8
g3
(g9
g5
NtRp378
(dp379
g12
(F10.827119999999999
I0
I0
tp380
sS'n'
(I3
I1
tp381
sbsg15
I01
sg16
g17
sbs(I0
I3
I6
I0
tp382
g3
(g4
g5
NtRp383
(dp384
g8
g3
(g9
g5
NtRp385
(dp386
g12
(F-10.827120000000001
I0
I0
tp387
sS'n'
(I3
I1
tp388
sbsg15
I01
sg16
g17
sbs(I0
I0
I4
I0
tp389
g3
(g4
g5
NtRp390
(dp391
g8
g3
(g9
g5
NtRp392
(dp393
g12
(F-10.827119999999992
I0
I0
tp394
sS'n'
(I3
I1
tp395
sbsg15
I01
sg16
g17
sbs(I0
I3
I1
I1
tp396
g3
(g4
g5
NtRp397
(dp398
g8
g3
(g9
g5
NtRp399
(dp400
g12
(F10.827120000000004
I0
I0
tp401
sS'n'
(I3
I1
tp402
sbsg15
I01
sg16
g17
sbs(I0
I0
I2
I0
tp403
g3
(g4
g5
NtRp404
(dp405
g8
g3
(g9
g5
NtRp406
(dp407
g12
(F-10.827120000000001
I0
I0
tp408
sS'n'
(I3
I1
tp409
sbsg15
I01
sg16
g17
sbs(I0
I3
I3
I1
tp410
g3
(g4
g5
NtRp411
(dp412
g8
g3
(g9
g5
NtRp413
(dp414
g12
(F10.827120000000004
I0
I0
tp415
sS'n'
(I3
I1
tp416
sbsg15
I01
sg16
g17
sbs(I0
I3
I5
tp417
g3
(g4
g5
NtRp418
(dp419
g8
g3
(g9
g5
NtRp420
(dp421
g12
(F68.468000000000004
F79.355000000000004
F0.17399999999999999
tp422
sS'n'
(I3
I1
tp423
sbsg15
I01
sg16
g3
(g9
g5
NtRp424
(dp425
g12
(F-0.0014649868064347566
F-0.001009636063924214
F-0.002117086272489715
F0.99999617618988434
tp426
sS'n'
(I4
I1
tp427
sbsbs(I0
I0
I0
tp428
g3
(g4
g5
NtRp429
(dp430
g8
g3
(g9
g5
NtRp431
(dp432
g12
(F21.739999999999998
F32.914999999999999
F0.048000000000000001
tp433
sS'n'
(I3
I1
tp434
sbsg15
I01
sg16
g3
(g9
g5
NtRp435
(dp436
g12
(F0.99999800088779367
F0.00045723003448540898
F0.0014723892552570455
F0.0012732756938943874
tp437
sS'n'
(I4
I1
tp438
sbsbs(I0
I2
tp439
g3
(g4
g5
NtRp440
(dp441
g8
g3
(g9
g5
NtRp442
(dp443
g12
(F6.1420000000000003
F3.7650000000000001
F-0.032000000000000001
tp444
sS'n'
(I3
I1
tp445
sbsg15
I01
sg16
g3
(g9
g5
NtRp446
(dp447
g12
(F0.70682426758743955
F-0.00054601740803509225
F-0.0011453706145343827
F-0.70738804396216992
tp448
sS'n'
(I4
I1
tp449
sbsbs(I0
I1
I7
I1
tp450
g3
(g4
g5
NtRp451
(dp452
g8
g3
(g9
g5
NtRp453
(dp454
g12
(F10.827119999999999
I0
I0
tp455
sS'n'
(I3
I1
tp456
sbsg15
I01
sg16
g17
sbs(I0
I1
I5
I1
tp457
g3
(g4
g5
NtRp458
(dp459
g8
g3
(g9
g5
NtRp460
(dp461
g12
(F10.827120000000001
I0
I0
tp462
sS'n'
(I3
I1
tp463
sbsg15
I01
sg16
g17
sbs(I0
I3
I4
I1
tp464
g3
(g4
g5
NtRp465
(dp466
g8
g3
(g9
g5
NtRp467
(dp468
g12
(F10.827120000000006
I0
I0
tp469
sS'n'
(I3
I1
tp470
sbsg15
I01
sg16
g17
sbs(I0
I1
I3
I1
tp471
g3
(g4
g5
NtRp472
(dp473
g8
g3
(g9
g5
NtRp474
(dp475
g12
(F10.827119999999985
I0
I0
tp476
sS'n'
(I3
I1
tp477
sbsg15
I01
sg16
g17
sbs(I0
I2
I0
tp478
g3
(g4
g5
NtRp479
(dp480
g8
g3
(g9
g5
NtRp481
(dp482
g12
(F21.780000000000001
F33.317
F-0.0089999999999999993
tp483
sS'n'
(I3
I1
tp484
sbsg15
I01
sg16
g3
(g9
g5
NtRp485
(dp486
g12
(F0.99999921642696177
F-0.00061872673560269995
F-0.00016906823503599363
F0.0010750528457075372
tp487
sS'n'
(I4
I1
tp488
sbsbs(I0
I3
I6
I1
tp489
g3
(g4
g5
NtRp490
(dp491
g8
g3
(g9
g5
NtRp492
(dp493
g12
(F10.827119999999999
I0
I0
tp494
sS'n'
(I3
I1
tp495
sbsg15
I01
sg16
g17
sbs(I0
I1
I1
I1
tp496
g3
(g4
g5
NtRp497
(dp498
g8
g3
(g9
g5
NtRp499
(dp500
g12
(F10.827120000000001
I0
I0
tp501
sS'n'
(I3
I1
tp502
sbsg15
I01
sg16
g17
sbs(I0
I3
I0
I1
tp503
g3
(g4
g5
NtRp504
(dp505
g8
g3
(g9
g5
NtRp506
(dp507
g12
(F10.827120000000003
I0
I0
tp508
sS'n'
(I3
I1
tp509
sbsg15
I01
sg16
g17
sbs(I0
I2
I2
tp510
g3
(g4
g5
NtRp511
(dp512
g8
g3
(g9
g5
NtRp513
(dp514
g12
(F33.265999999999998
F68.399000000000001
F-0.037999999999999999
tp515
sS'n'
(I3
I1
tp516
sbsg15
I01
sg16
g3
(g9
g5
NtRp517
(dp518
g12
(F0.70728216200435157
F0.00069141366449305801
F-3.9849254530125632e-05
F-0.70693101761744193
tp519
sS'n'
(I4
I1
tp520
sbsbs(I0
I3
I2
I1
tp521
g3
(g4
g5
NtRp522
(dp523
g8
g3
(g9
g5
NtRp524
(dp525
g12
(F10.827120000000008
I0
I0
tp526
sS'n'
(I3
I1
tp527
sbsg15
I01
sg16
g17
sbs(I0
I2
I4
tp528
g3
(g4
g5
NtRp529
(dp530
g8
g3
(g9
g5
NtRp531
(dp532
g12
(F68.497
F57.051000000000002
F0.01
tp533
sS'n'
(I3
I1
tp534
sbsg15
I01
sg16
g3
(g9
g5
NtRp535
(dp536
g12
(F0.00015509616026129175
F-6.1026433591589236e-05
F-0.00038747255170570036
F0.99999991104298469
tp537
sS'n'
(I4
I1
tp538
sbsbs(I0
I2
I5
tp539
g3
(g4
g5
NtRp540
(dp541
g8
g3
(g9
g5
NtRp542
(dp543
g12
(F68.460999999999999
F79.478999999999999
F-0.083000000000000004
tp544
sS'n'
(I3
I1
tp545
sbsg15
I01
sg16
g3
(g9
g5
NtRp546
(dp547
g12
(F-0.00102762508509371
F-0.00013887023030349047
F0.0010756149206977046
F0.99999888387652014
tp548
sS'n'
(I4
I1
tp549
sbsbs(I0
I2
I6
tp550
g3
(g4
g5
NtRp551
(dp552
g8
g3
(g9
g5
NtRp553
(dp554
g12
(F77.308999999999997
F21.739999999999998
F0.0040000000000000001
tp555
sS'n'
(I3
I1
tp556
sbsg15
I01
sg16
g3
(g9
g5
NtRp557
(dp558
g12
(F0.70776575351813642
F0.00071742613042088965
F-0.00050370252738328751
F-0.70644665030730802
tp559
sS'n'
(I4
I1
tp560
sbsbs(I0
I3
I7
tp561
g3
(g4
g5
NtRp562
(dp563
g8
g3
(g9
g5
NtRp564
(dp565
g12
(F54.613999999999997
F21.513000000000002
F0.01
tp566
sS'n'
(I3
I1
tp567
sbsg15
I01
sg16
g3
(g9
g5
NtRp568
(dp569
g12
(F0.7080667660995289
F0.0011122974768431456
F-6.6119469857109541e-05
F-0.7061446120787821
tp570
sS'n'
(I4
I1
tp571
sbsbs(I0
I1
I6
I1
tp572
g3
(g4
g5
NtRp573
(dp574
g8
g3
(g9
g5
NtRp575
(dp576
g12
(F10.827120000000001
I0
I0
tp577
sS'n'
(I3
I1
tp578
sbsg15
I01
sg16
g17
sbs(I0
I1
I4
I1
tp579
g3
(g4
g5
NtRp580
(dp581
g8
g3
(g9
g5
NtRp582
(dp583
g12
(F10.827120000000001
I0
I0
tp584
sS'n'
(I3
I1
tp585
sbsg15
I01
sg16
g17
sbs(I0
I1
I2
I1
tp586
g3
(g4
g5
NtRp587
(dp588
g8
g3
(g9
g5
NtRp589
(dp590
g12
(F10.827119999999992
I0
I0
tp591
sS'n'
(I3
I1
tp592
sbsg15
I01
sg16
g17
sbs(I0
I3
I5
I0
tp593
g3
(g4
g5
NtRp594
(dp595
g8
g3
(g9
g5
NtRp596
(dp597
g12
(F-10.827120000000001
I0
I0
tp598
sS'n'
(I3
I1
tp599
sbsg15
I01
sg16
g17
sbs(I0
I1
I0
I1
tp600
g3
(g4
g5
NtRp601
(dp602
g8
g3
(g9
g5
NtRp603
(dp604
g12
(F10.827120000000001
I0
I0
tp605
sS'n'
(I3
I1
tp606
sbsg15
I01
sg16
g17
sbs(I0
I3
I7
I0
tp607
g3
(g4
g5
NtRp608
(dp609
g8
g3
(g9
g5
NtRp610
(dp611
g12
(F-10.827120000000008
I0
I0
tp612
sS'n'
(I3
I1
tp613
sbsg15
I01
sg16
g17
sbs(I0
I1
I1
tp614
g3
(g4
g5
NtRp615
(dp616
g8
g3
(g9
g5
NtRp617
(dp618
g12
(F21.765000000000001
F10.445
F0.10199999999999999
tp619
sS'n'
(I3
I1
tp620
sbsg15
I01
sg16
g3
(g9
g5
NtRp621
(dp622
g12
(F0.99999931411425436
F-0.0006604033717991293
F0.00093445890940727636
F-0.00024984986262600206
tp623
sS'n'
(I4
I1
tp624
sbsbs(I0
I3
I1
I0
tp625
g3
(g4
g5
NtRp626
(dp627
g8
g3
(g9
g5
NtRp628
(dp629
g12
(F-10.827120000000001
I0
I0
tp630
sS'n'
(I3
I1
tp631
sbsg15
I01
sg16
g17
sbs(I0
I1
I3
tp632
g3
(g4
g5
NtRp633
(dp634
g8
g3
(g9
g5
NtRp635
(dp636
g12
(F10.598000000000001
F68.289000000000001
F0.085999999999999993
tp637
sS'n'
(I3
I1
tp638
sbsg15
I01
sg16
g3
(g9
g5
NtRp639
(dp640
g12
(F0.70740889203562973
F5.6975618881453771e-05
F-0.0002412358850475385
F-0.70680449774173726
tp641
sS'n'
(I4
I1
tp642
sbsbs(I0
I2
I5
I0
tp643
g3
(g4
g5
NtRp644
(dp645
g8
g3
(g9
g5
NtRp646
(dp647
g12
(F-10.82712000000001
I0
I0
tp648
sS'n'
(I3
I1
tp649
sbsg15
I01
sg16
g17
sbs(I0
I3
I3
I0
tp650
g3
(g4
g5
NtRp651
(dp652
g8
g3
(g9
g5
NtRp653
(dp654
g12
(F-10.827119999999997
I0
I0
tp655
sS'n'
(I3
I1
tp656
sbsg15
I01
sg16
g17
sbs(I0
I3
tp657
g3
(g4
g5
NtRp658
(dp659
g8
g3
(g9
g5
NtRp660
(dp661
g12
(F4.5170000000000003
F-5.9379999999999997
F0.047
tp662
sS'n'
(I3
I1
tp663
sbsg15
I01
sg16
g3
(g9
g5
NtRp664
(dp665
g12
(F0.00066315189879482335
F0.0016213839028637518
F0.00017176778983411011
F0.99999845091861261
tp666
sS'n'
(I4
I1
tp667
sbsbs(I0
I1
I5
tp668
g3
(g4
g5
NtRp669
(dp670
g8
g3
(g9
g5
NtRp671
(dp672
g12
(F68.655000000000001
F79.289000000000001
F0.02
tp673
sS'n'
(I3
I1
tp674
sbsg15
I01
sg16
g3
(g9
g5
NtRp675
(dp676
g12
(F-0.00015573425994556099
F-2.8300703477003087e-05
F-0.0012898808327214807
F0.99999915557631747
tp677
sS'n'
(I4
I1
tp678
sbsbs(I0
I2
I1
I0
tp679
g3
(g4
g5
NtRp680
(dp681
g8
g3
(g9
g5
NtRp682
(dp683
g12
(F-10.827119999999997
I0
I0
tp684
sS'n'
(I3
I1
tp685
sbsg15
I01
sg16
g17
sbs(I0
I0
I6
tp686
g3
(g4
g5
NtRp687
(dp688
g8
g3
(g9
g5
NtRp689
(dp690
g12
(F77.837999999999994
F21.600000000000001
F-0.0080000000000000002
tp691
sS'n'
(I3
I1
tp692
sbsg15
I01
sg16
g3
(g9
g5
NtRp693
(dp694
g12
(F0.70677448640520502
F0.0002650455022213776
F0.0008872199983900569
F-0.70743831388907297
tp695
sS'n'
(I4
I1
tp696
sbsbs(I0
I1
I7
tp697
g3
(g4
g5
NtRp698
(dp699
g8
g3
(g9
g5
NtRp700
(dp701
g12
(F54.787999999999997
F21.055
F-0.014
tp702
sS'n'
(I3
I1
tp703
sbsg15
I01
sg16
g3
(g9
g5
NtRp704
(dp705
g12
(F0.70717948706399469
F0.0011320266075712996
F-0.0010169823415314258
F-0.70703243018873074
tp706
sS'n'
(I4
I1
tp707
sbsbs(I0
I2
I3
I0
tp708
g3
(g4
g5
NtRp709
(dp710
g8
g3
(g9
g5
NtRp711
(dp712
g12
(F-10.827120000000006
I0
I0
tp713
sS'n'
(I3
I1
tp714
sbsg15
I01
sg16
g17
sbs(I0
I0
I0
I0
tp715
g3
(g4
g5
NtRp716
(dp717
g8
g3
(g9
g5
NtRp718
(dp719
g12
(F-10.827119999999999
I0
I0
tp720
sS'n'
(I3
I1
tp721
sbsg15
I01
sg16
g17
sbs(I0
I1
I7
I0
tp722
g3
(g4
g5
NtRp723
(dp724
g8
g3
(g9
g5
NtRp725
(dp726
g12
(F-10.827120000000003
I0
I0
tp727
sS'n'
(I3
I1
tp728
sbsg15
I01
sg16
g17
sbs(I0
I0
I4
tp729
g3
(g4
g5
NtRp730
(dp731
g8
g3
(g9
g5
NtRp732
(dp733
g12
(F68.575000000000003
F56.863999999999997
F0.019
tp734
sS'n'
(I3
I1
tp735
sbsg15
I01
sg16
g3
(g9
g5
NtRp736
(dp737
g12
(F0.00044770406704257
F0.0016135301415087452
F-0.0014967638596024705
F0.99999747788656912
tp738
sS'n'
(I4
I1
tp739
sbsbs(I0
I3
I2
tp740
g3
(g4
g5
NtRp741
(dp742
g8
g3
(g9
g5
NtRp743
(dp744
g12
(F33.25
F68.600999999999999
F0.064000000000000001
tp745
sS'n'
(I3
I1
tp746
sbsg15
I01
sg16
g3
(g9
g5
NtRp747
(dp748
g12
(F0.70724542621669273
F0.00077823977715228958
F0.0012290439389119224
F-0.70696661228760604
tp749
sS'n'
(I4
I1
tp750
sbsbs(I0
I1
I5
I0
tp751
g3
(g4
g5
NtRp752
(dp753
g8
g3
(g9
g5
NtRp754
(dp755
g12
(F-10.827120000000001
I0
I0
tp756
sS'n'
(I3
I1
tp757
sbsg15
I01
sg16
g17
sbs(I0
I0
tp758
g3
(g4
g5
NtRp759
(dp760
g8
g3
(g9
g5
NtRp761
(dp762
g12
(F-4.9329999999999998
F-4.0979999999999999
F-0.115
tp763
sS'n'
(I3
I1
tp764
sbsg15
I01
sg16
g3
(g9
g5
NtRp765
(dp766
g12
(F0.70762563004366696
F0.0018816571546649318
F0.00011819869416760164
F0.70658503600113443
tp767
sS'n'
(I4
I1
tp768
sbsbs(I0
I0
I2
tp769
g3
(g4
g5
NtRp770
(dp771
g8
g3
(g9
g5
NtRp772
(dp773
g12
(F33.122
F68.340999999999994
F0.058000000000000003
tp774
sS'n'
(I3
I1
tp775
sbsg15
I01
sg16
g3
(g9
g5
NtRp776
(dp777
g12
(F0.70762576414548084
F0.00068829075579215796
F0.0012789825417933456
F-0.70658592427037314
tp778
sS'n'
(I4
I1
tp779
sbsbs(I0
I3
I0
tp780
g3
(g4
g5
NtRp781
(dp782
g8
g3
(g9
g5
NtRp783
(dp784
g12
(F21.667000000000002
F32.908999999999999
F0.078
tp785
sS'n'
(I3
I1
tp786
sbsg15
I01
sg16
g3
(g9
g5
NtRp787
(dp788
g12
(F0.99999712920636252
F0.00017131225007053328
F0.001935243327036979
F0.0014025207348277854
tp789
sS'n'
(I4
I1
tp790
sbsbs(I0
I1
I3
I0
tp791
g3
(g4
g5
NtRp792
(dp793
g8
g3
(g9
g5
NtRp794
(dp795
g12
(F-10.827120000000013
I0
I0
tp796
sS'n'
(I3
I1
tp797
sbsg15
I01
sg16
g17
sbs(I0
I0
I7
I0
tp798
g3
(g4
g5
NtRp799
(dp800
g8
g3
(g9
g5
NtRp801
(dp802
g12
(F-10.827119999999999
I0
I0
tp803
sS'n'
(I3
I1
tp804
sbsg15
I01
sg16
g17
sbs(I0
I1
I1
I0
tp805
g3
(g4
g5
NtRp806
(dp807
g8
g3
(g9
g5
NtRp808
(dp809
g12
(F-10.827119999999995
I0
I0
tp810
sS'n'
(I3
I1
tp811
sbsg15
I01
sg16
g17
sbs(I0
I3
I6
tp812
g3
(g4
g5
NtRp813
(dp814
g8
g3
(g9
g5
NtRp815
(dp816
g12
(F77.969999999999999
F21.512
F0.073999999999999996
tp817
sS'n'
(I3
I1
tp818
sbsg15
I01
sg16
g3
(g9
g5
NtRp819
(dp820
g12
(F0.70737486716407727
F0.0013423108084555477
F-0.00014749681447276408
F-0.70683730359325758
tp821
sS'n'
(I4
I1
tp822
sbsbs(I0
I0
I5
I0
tp823
g3
(g4
g5
NtRp824
(dp825
g8
g3
(g9
g5
NtRp826
(dp827
g12
(F-10.82711999999999
I0
I0
tp828
sS'n'
(I3
I1
tp829
sbsg15
I01
sg16
g17
sbs(I0
I0
I3
I0
tp830
g3
(g4
g5
NtRp831
(dp832
g8
g3
(g9
g5
NtRp833
(dp834
g12
(F-10.827120000000001
I0
I0
tp835
sS'n'
(I3
I1
tp836
sbsg15
I01
sg16
g17
sbs(I0
I2
I4
I1
tp837
g3
(g4
g5
NtRp838
(dp839
g8
g3
(g9
g5
NtRp840
(dp841
g12
(F10.827119999999994
I0
I0
tp842
sS'n'
(I3
I1
tp843
sbsg15
I01
sg16
g17
sbs(I0
I3
I4
tp844
g3
(g4
g5
NtRp845
(dp846
g8
g3
(g9
g5
NtRp847
(dp848
g12
(F68.5
F56.802999999999997
F0.045999999999999999
tp849
sS'n'
(I3
I1
tp850
sbsg15
I01
sg16
g3
(g9
g5
NtRp851
(dp852
g12
(F-0.00067695001492506612
F-0.0011574419198763961
F-0.0017129513773123197
F0.99999763392942997
tp853
sS'n'
(I4
I1
tp854
sbsbs(I0
I0
I1
I0
tp855
g3
(g4
g5
NtRp856
(dp857
g8
g3
(g9
g5
NtRp858
(dp859
g12
(F-10.827120000000001
I0
I0
tp860
sS'n'
(I3
I1
tp861
sbsg15
I01
sg16
g17
sbs(I0
I2
I6
I1
tp862
g3
(g4
g5
NtRp863
(dp864
g8
g3
(g9
g5
NtRp865
(dp866
g12
(F10.827120000000003
I0
I0
tp867
sS'n'
(I3
I1
tp868
sbsg15
I01
sg16
g17
sbs.