(dp1
(I0
I2
I0
I1
tp2
ccopy_reg
_reconstructor
p3
(cxfel.cftbx.detector.cspad_cbf_tbx
basis
p4
c__builtin__
object
p5
NtRp6
(dp7
S'translation'
p8
g3
(cscitbx.matrix
col
p9
g5
NtRp10
(dp11
S'elems'
p12
(F10.827119999999999
I0
I0
tp13
sS'n'
(I3
I1
tp14
sbsS'include_translation'
p15
I01
sS'orientation'
p16
g3
(g9
g5
NtRp17
(dp18
g12
(F1
F0
F0
F0
tp19
sS'n'
(I4
I1
tp20
sbsbs(I0
I2
I2
I1
tp21
g3
(g4
g5
NtRp22
(dp23
g8
g3
(g9
g5
NtRp24
(dp25
g12
(F10.827120000000003
I0
I0
tp26
sS'n'
(I3
I1
tp27
sbsg15
I01
sg16
g17
sbs(I0
I2
I1
tp28
g3
(g4
g5
NtRp29
(dp30
g8
g3
(g9
g5
NtRp31
(dp32
g12
(F21.805
F10.433
F0
tp33
sS'n'
(I3
I1
tp34
sbsg15
I01
sg16
g3
(g9
g5
NtRp35
(dp36
g12
(F0.99999930109994672
F0
F0
F-0.0011822857598676882
tp37
sS'n'
(I4
I1
tp38
sbsbs(I0
I0
I5
tp39
g3
(g4
g5
NtRp40
(dp41
g8
g3
(g9
g5
NtRp42
(dp43
g12
(F68.641000000000005
F79.593000000000004
F0
tp44
sS'n'
(I3
I1
tp45
sbsg15
I01
sg16
g3
(g9
g5
NtRp46
(dp47
g12
(F0.0015097092294807811
F0
F0
F0.99999886038837182
tp48
sS'n'
(I4
I1
tp49
sbsbs(I0
I2
I3
tp50
g3
(g4
g5
NtRp51
(dp52
g8
g3
(g9
g5
NtRp53
(dp54
g12
(F10.584
F68.343000000000004
F0
tp55
sS'n'
(I3
I1
tp56
sbsg15
I01
sg16
g3
(g9
g5
NtRp57
(dp58
g12
(F0.70668038279155121
F0
F0
F-0.70753292261038048
tp59
sS'n'
(I4
I1
tp60
sbsbs(I0
I0
I6
I1
tp61
g3
(g4
g5
NtRp62
(dp63
g8
g3
(g9
g5
NtRp64
(dp65
g12
(F10.827120000000001
I0
I0
tp66
sS'n'
(I3
I1
tp67
sbsg15
I01
sg16
g17
sbs(I0
I0
I4
I1
tp68
g3
(g4
g5
NtRp69
(dp70
g8
g3
(g9
g5
NtRp71
(dp72
g12
(F10.827120000000008
I0
I0
tp73
sS'n'
(I3
I1
tp74
sbsg15
I01
sg16
g17
sbs(I0
I2
I5
I1
tp75
g3
(g4
g5
NtRp76
(dp77
g8
g3
(g9
g5
NtRp78
(dp79
g12
(F10.827119999999997
I0
I0
tp80
sS'n'
(I3
I1
tp81
sbsg15
I01
sg16
g17
sbs(I0
I0
I2
I1
tp82
g3
(g4
g5
NtRp83
(dp84
g8
g3
(g9
g5
NtRp85
(dp86
g12
(F10.827120000000003
I0
I0
tp87
sS'n'
(I3
I1
tp88
sbsg15
I01
sg16
g17
sbs(I0
I2
I7
I1
tp89
g3
(g4
g5
NtRp90
(dp91
g8
g3
(g9
g5
NtRp92
(dp93
g12
(F10.827119999999999
I0
I0
tp94
sS'n'
(I3
I1
tp95
sbsg15
I01
sg16
g17
sbs(I0
I2
I7
tp96
g3
(g4
g5
NtRp97
(dp98
g8
g3
(g9
g5
NtRp99
(dp100
g12
(F54.716999999999999
F21.678000000000001
F0
tp101
sS'n'
(I3
I1
tp102
sbsg15
I01
sg16
g3
(g9
g5
NtRp103
(dp104
g12
(F0.70674891519987593
F0
F0
F-0.70746446614921843
tp105
sS'n'
(I4
I1
tp106
sbsbs(I0
I0
I0
I1
tp107
g3
(g4
g5
NtRp108
(dp109
g8
g3
(g9
g5
NtRp110
(dp111
g12
(F10.827120000000003
I0
I0
tp112
sS'n'
(I3
I1
tp113
sbsg15
I01
sg16
g17
sbs(I0
I2
I1
I1
tp114
g3
(g4
g5
NtRp115
(dp116
g8
g3
(g9
g5
NtRp117
(dp118
g12
(F10.827120000000006
I0
I0
tp119
sS'n'
(I3
I1
tp120
sbsg15
I01
sg16
g17
sbs(I0
I2
I3
I1
tp121
g3
(g4
g5
NtRp122
(dp123
g8
g3
(g9
g5
NtRp124
(dp125
g12
(F10.827120000000004
I0
I0
tp126
sS'n'
(I3
I1
tp127
sbsg15
I01
sg16
g17
sbs(I0
I1
tp128
g3
(g4
g5
NtRp129
(dp130
g8
g3
(g9
g5
NtRp131
(dp132
g12
(F-2.3999999999999999
F5.9000000000000004
F0
tp133
sS'n'
(I3
I1
tp134
sbsg15
I01
sg16
g3
(g9
g5
NtRp135
(dp136
g12
(F1
F0
F0
F0
tp137
sS'n'
(I4
I1
tp138
sbsbs(I0
tp139
g3
(g4
g5
NtRp140
(dp141
g8
g3
(g9
g5
NtRp142
(dp143
g12
(F0
F0
F0
tp144
sS'n'
(I3
I1
tp145
sbsg15
I01
sg16
g3
(g9
g5
NtRp146
(dp147
g12
(F1
F0
F0
F0
tp148
sS'n'
(I4
I1
tp149
sbsbs(I0
I3
I4
I0
tp150
g3
(g4
g5
NtRp151
(dp152
g8
g3
(g9
g5
NtRp153
(dp154
g12
(F-10.827120000000022
I0
I0
tp155
sS'n'
(I3
I1
tp156
sbsg15
I01
sg16
g17
sbs(I0
I0
I7
I1
tp157
g3
(g4
g5
NtRp158
(dp159
g8
g3
(g9
g5
NtRp160
(dp161
g12
(F10.827120000000001
I0
I0
tp162
sS'n'
(I3
I1
tp163
sbsg15
I01
sg16
g17
sbs(I0
I1
I0
tp164
g3
(g4
g5
NtRp165
(dp166
g8
g3
(g9
g5
NtRp167
(dp168
g12
(F21.795999999999999
F33.393000000000001
F0.069000000000000006
tp169
sS'n'
(I3
I1
tp170
sbsg15
I01
sg16
g3
(g9
g5
NtRp171
(dp172
g12
(F0.99999465192254922
F-0.0010787279384090317
F0.0025688502869116022
F-0.0017127406509825805
tp173
sS'n'
(I4
I1
tp174
sbsbs(I0
I0
I5
I1
tp175
g3
(g4
g5
NtRp176
(dp177
g8
g3
(g9
g5
NtRp178
(dp179
g12
(F10.827119999999994
I0
I0
tp180
sS'n'
(I3
I1
tp181
sbsg15
I01
sg16
g17
sbs(I0
I3
I0
I0
tp182
g3
(g4
g5
NtRp183
(dp184
g8
g3
(g9
g5
NtRp185
(dp186
g12
(F-10.827120000000001
I0
I0
tp187
sS'n'
(I3
I1
tp188
sbsg15
I01
sg16
g17
sbs(I0
I1
I2
tp189
g3
(g4
g5
NtRp190
(dp191
g8
g3
(g9
g5
NtRp192
(dp193
g12
(F33.311
F68.498000000000005
F-0.035000000000000003
tp194
sS'n'
(I3
I1
tp195
sbsg15
I01
sg16
g3
(g9
g5
NtRp196
(dp197
g12
(F0.7076371740670494
F-0.0012202483846074658
F0.0049261233272998289
F-0.70655776422118843
tp198
sS'n'
(I4
I1
tp199
sbsbs(I0
I0
I3
I1
tp200
g3
(g4
g5
NtRp201
(dp202
g8
g3
(g9
g5
NtRp203
(dp204
g12
(F10.827120000000003
I0
I0
tp205
sS'n'
(I3
I1
tp206
sbsg15
I01
sg16
g17
sbs(I0
I3
I2
I0
tp207
g3
(g4
g5
NtRp208
(dp209
g8
g3
(g9
g5
NtRp210
(dp211
g12
(F-10.827119999999999
I0
I0
tp212
sS'n'
(I3
I1
tp213
sbsg15
I01
sg16
g17
sbs(I0
I2
I4
I0
tp214
g3
(g4
g5
NtRp215
(dp216
g8
g3
(g9
g5
NtRp217
(dp218
g12
(F-10.827120000000001
I0
I0
tp219
sS'n'
(I3
I1
tp220
sbsg15
I01
sg16
g17
sbs(I0
I1
I4
tp221
g3
(g4
g5
NtRp222
(dp223
g8
g3
(g9
g5
NtRp224
(dp225
g12
(F68.576999999999998
F56.905999999999999
F0.029999999999999999
tp226
sS'n'
(I3
I1
tp227
sbsg15
I01
sg16
g3
(g9
g5
NtRp228
(dp229
g12
(F-0.00041972848195639988
F-0.001883892848425116
F-0.0026522672824031701
F0.99999462011252838
tp230
sS'n'
(I4
I1
tp231
sbsbs(I0
I0
I1
I1
tp232
g3
(g4
g5
NtRp233
(dp234
g8
g3
(g9
g5
NtRp235
(dp236
g12
(F10.827119999999999
I0
I0
tp237
sS'n'
(I3
I1
tp238
sbsg15
I01
sg16
g17
sbs(I0
I2
I6
I0
tp239
g3
(g4
g5
NtRp240
(dp241
g8
g3
(g9
g5
NtRp242
(dp243
g12
(F-10.827120000000003
I0
I0
tp244
sS'n'
(I3
I1
tp245
sbsg15
I01
sg16
g17
sbs(I0
I0
I7
tp246
g3
(g4
g5
NtRp247
(dp248
g8
g3
(g9
g5
NtRp249
(dp250
g12
(F54.887
F21.619
F0
tp251
sS'n'
(I3
I1
tp252
sbsg15
I01
sg16
g3
(g9
g5
NtRp253
(dp254
g12
(F0.70701748594356584
F0
F0
F-0.70719606515452249
tp255
sS'n'
(I4
I1
tp256
sbsbs(I0
I1
I6
tp257
g3
(g4
g5
NtRp258
(dp259
g8
g3
(g9
g5
NtRp260
(dp261
g12
(F77.305999999999997
F21.384
F-0.17899999999999999
tp262
sS'n'
(I3
I1
tp263
sbsg15
I01
sg16
g3
(g9
g5
NtRp264
(dp265
g12
(F0.70785508331318747
F-0.001685797321950427
F0.0028755265669092038
F-0.70634982159127979
tp266
sS'n'
(I4
I1
tp267
sbsbs(I0
I2
I0
I0
tp268
g3
(g4
g5
NtRp269
(dp270
g8
g3
(g9
g5
NtRp271
(dp272
g12
(F-10.827120000000001
I0
I0
tp273
sS'n'
(I3
I1
tp274
sbsg15
I01
sg16
g17
sbs(I0
I2
I7
I0
tp275
g3
(g4
g5
NtRp276
(dp277
g8
g3
(g9
g5
NtRp278
(dp279
g12
(F-10.827120000000003
I0
I0
tp280
sS'n'
(I3
I1
tp281
sbsg15
I01
sg16
g17
sbs(I0
I1
I6
I0
tp282
g3
(g4
g5
NtRp283
(dp284
g8
g3
(g9
g5
NtRp285
(dp286
g12
(F-10.827120000000001
I0
I0
tp287
sS'n'
(I3
I1
tp288
sbsg15
I01
sg16
g17
sbs(I0
I2
I2
I0
tp289
g3
(g4
g5
NtRp290
(dp291
g8
g3
(g9
g5
NtRp292
(dp293
g12
(F-10.82712000000001
I0
I0
tp294
sS'n'
(I3
I1
tp295
sbsg15
I01
sg16
g17
sbs(I0
I1
I4
I0
tp296
g3
(g4
g5
NtRp297
(dp298
g8
g3
(g9
g5
NtRp299
(dp300
g12
(F-10.82711999999999
I0
I0
tp301
sS'n'
(I3
I1
tp302
sbsg15
I01
sg16
g17
sbs(I0
I0
I3
tp303
g3
(g4
g5
NtRp304
(dp305
g8
g3
(g9
g5
NtRp306
(dp307
g12
(F10.548
F68.344999999999999
F0
tp308
sS'n'
(I3
I1
tp309
sbsg15
I01
sg16
g3
(g9
g5
NtRp310
(dp311
g12
(F0.70741900985892681
F0
F0
F-0.7067944145861762
tp312
sS'n'
(I4
I1
tp313
sbsbs(I0
I3
I3
tp314
g3
(g4
g5
NtRp315
(dp316
g8
g3
(g9
g5
NtRp317
(dp318
g12
(F10.417999999999999
F68.557000000000002
F0.012
tp319
sS'n'
(I3
I1
tp320
sbsg15
I01
sg16
g3
(g9
g5
NtRp321
(dp322
g12
(F0.70594469739041044
F-0.00058620599679840642
F-8.0317333608849337e-05
F-0.70826671116043338
tp323
sS'n'
(I4
I1
tp324
sbsbs(I0
I1
I2
I0
tp325
g3
(g4
g5
NtRp326
(dp327
g8
g3
(g9
g5
NtRp328
(dp329
g12
(F-10.827119999999999
I0
I0
tp330
sS'n'
(I3
I1
tp331
sbsg15
I01
sg16
g17
sbs(I0
I3
I5
I1
tp332
g3
(g4
g5
NtRp333
(dp334
g8
g3
(g9
g5
NtRp335
(dp336
g12
(F10.827119999999999
I0
I0
tp337
sS'n'
(I3
I1
tp338
sbsg15
I01
sg16
g17
sbs(I0
I0
I1
tp339
g3
(g4
g5
NtRp340
(dp341
g8
g3
(g9
g5
NtRp342
(dp343
g12
(F21.763999999999999
F10.525
F0
tp344
sS'n'
(I3
I1
tp345
sbsg15
I01
sg16
g3
(g9
g5
NtRp346
(dp347
g12
(F0.99999969540111644
F0
F0
F0.00078051116224424507
tp348
sS'n'
(I4
I1
tp349
sbsbs(I0
I1
I0
I0
tp350
g3
(g4
g5
NtRp351
(dp352
g8
g3
(g9
g5
NtRp353
(dp354
g12
(F-10.827120000000001
I0
I0
tp355
sS'n'
(I3
I1
tp356
sbsg15
I01
sg16
g17
sbs(I0
I3
I1
tp357
g3
(g4
g5
NtRp358
(dp359
g8
g3
(g9
g5
NtRp360
(dp361
g12
(F21.763000000000002
F10.452999999999999
F-0.045999999999999999
tp362
sS'n'
(I3
I1
tp363
sbsg15
I01
sg16
g3
(g9
g5
NtRp364
(dp365
g12
(F0.99999970172320174
F-0.00057404463381762329
F-0.00051661073800677443
F1.1815728059639916e-05
tp366
sS'n'
(I4
I1
tp367
sbsbs(I0
I0
I6
I0
tp368
g3
(g4
g5
NtRp369
(dp370
g8
g3
(g9
g5
NtRp371
(dp372
g12
(F-10.827120000000001
I0
I0
tp373
sS'n'
(I3
I1
tp374
sbsg15
I01
sg16
g17
sbs(I0
I3
I7
I1
tp375
g3
(g4
g5
NtRp376
(dp377
g8
g3
(g9
g5
NtRp378
(dp379
g12
(F10.827120000000003
I0
I0
tp380
sS'n'
(I3
I1
tp381
sbsg15
I01
sg16
g17
sbs(I0
I3
I6
I0
tp382
g3
(g4
g5
NtRp383
(dp384
g8
g3
(g9
g5
NtRp385
(dp386
g12
(F-10.827119999999999
I0
I0
tp387
sS'n'
(I3
I1
tp388
sbsg15
I01
sg16
g17
sbs(I0
I0
I4
I0
tp389
g3
(g4
g5
NtRp390
(dp391
g8
g3
(g9
g5
NtRp392
(dp393
g12
(F-10.827119999999979
I0
I0
tp394
sS'n'
(I3
I1
tp395
sbsg15
I01
sg16
g17
sbs(I0
I3
I1
I1
tp396
g3
(g4
g5
NtRp397
(dp398
g8
g3
(g9
g5
NtRp399
(dp400
g12
(F10.827119999999997
I0
I0
tp401
sS'n'
(I3
I1
tp402
sbsg15
I01
sg16
g17
sbs(I0
I0
I2
I0
tp403
g3
(g4
g5
NtRp404
(dp405
g8
g3
(g9
g5
NtRp406
(dp407
g12
(F-10.827119999999988
I0
I0
tp408
sS'n'
(I3
I1
tp409
sbsg15
I01
sg16
g17
sbs(I0
I3
I3
I1
tp410
g3
(g4
g5
NtRp411
(dp412
g8
g3
(g9
g5
NtRp413
(dp414
g12
(F10.827120000000001
I0
I0
tp415
sS'n'
(I3
I1
tp416
sbsg15
I01
sg16
g17
sbs(I0
I3
I5
tp417
g3
(g4
g5
NtRp418
(dp419
g8
g3
(g9
g5
NtRp420
(dp421
g12
(F68.304000000000002
F79.805999999999997
F0.080000000000000002
tp422
sS'n'
(I3
I1
tp423
sbsg15
I01
sg16
g3
(g9
g5
NtRp424
(dp425
g12
(F-0.0018245146700128878
F-0.00067984538773005422
F-0.0013600300671696634
F0.99999717963336476
tp426
sS'n'
(I4
I1
tp427
sbsbs(I0
I0
I0
tp428
g3
(g4
g5
NtRp429
(dp430
g8
g3
(g9
g5
NtRp431
(dp432
g12
(F21.736000000000001
F32.909999999999997
F0
tp433
sS'n'
(I3
I1
tp434
sbsg15
I01
sg16
g3
(g9
g5
NtRp435
(dp436
g12
(F0.99999909696179501
F0
F0
F0.001343903119503534
tp437
sS'n'
(I4
I1
tp438
sbsbs(I0
I2
tp439
g3
(g4
g5
NtRp440
(dp441
g8
g3
(g9
g5
NtRp442
(dp443
g12
(F6.5
F3.7000000000000002
F0
tp444
sS'n'
(I3
I1
tp445
sbsg15
I01
sg16
g3
(g9
g5
NtRp446
(dp447
g12
(F0.70710678118654746
F0
F0
F-0.70710678118654757
tp448
sS'n'
(I4
I1
tp449
sbsbs(I0
I1
I7
I1
tp450
g3
(g4
g5
NtRp451
(dp452
g8
g3
(g9
g5
NtRp453
(dp454
g12
(F10.827120000000003
I0
I0
tp455
sS'n'
(I3
I1
tp456
sbsg15
I01
sg16
g17
sbs(I0
I1
I5
I1
tp457
g3
(g4
g5
NtRp458
(dp459
g8
g3
(g9
g5
NtRp460
(dp461
g12
(F10.827120000000001
I0
I0
tp462
sS'n'
(I3
I1
tp463
sbsg15
I01
sg16
g17
sbs(I0
I3
I4
I1
tp464
g3
(g4
g5
NtRp465
(dp466
g8
g3
(g9
g5
NtRp467
(dp468
g12
(F10.827119999999987
I0
I0
tp469
sS'n'
(I3
I1
tp470
sbsg15
I01
sg16
g17
sbs(I0
I1
I3
I1
tp471
g3
(g4
g5
NtRp472
(dp473
g8
g3
(g9
g5
NtRp474
(dp475
g12
(F10.827120000000001
I0
I0
tp476
sS'n'
(I3
I1
tp477
sbsg15
I01
sg16
g17
sbs(I0
I2
I0
tp478
g3
(g4
g5
NtRp479
(dp480
g8
g3
(g9
g5
NtRp481
(dp482
g12
(F21.762
F33.293999999999997
F0
tp483
sS'n'
(I3
I1
tp484
sbsg15
I01
sg16
g3
(g9
g5
NtRp485
(dp486
g12
(F0.99999950766350265
F0
F0
F0.00099230678337172869
tp487
sS'n'
(I4
I1
tp488
sbsbs(I0
I3
I6
I1
tp489
g3
(g4
g5
NtRp490
(dp491
g8
g3
(g9
g5
NtRp492
(dp493
g12
(F10.827119999999999
I0
I0
tp494
sS'n'
(I3
I1
tp495
sbsg15
I01
sg16
g17
sbs(I0
I1
I1
I1
tp496
g3
(g4
g5
NtRp497
(dp498
g8
g3
(g9
g5
NtRp499
(dp500
g12
(F10.827120000000011
I0
I0
tp501
sS'n'
(I3
I1
tp502
sbsg15
I01
sg16
g17
sbs(I0
I3
I0
I1
tp503
g3
(g4
g5
NtRp504
(dp505
g8
g3
(g9
g5
NtRp506
(dp507
g12
(F10.827120000000003
I0
I0
tp508
sS'n'
(I3
I1
tp509
sbsg15
I01
sg16
g17
sbs(I0
I2
I2
tp510
g3
(g4
g5
NtRp511
(dp512
g8
g3
(g9
g5
NtRp513
(dp514
g12
(F33.267000000000003
F68.359999999999999
F0
tp515
sS'n'
(I3
I1
tp516
sbsg15
I01
sg16
g3
(g9
g5
NtRp517
(dp518
g12
(F0.70701748594356584
F0
F0
F-0.70719606515452249
tp519
sS'n'
(I4
I1
tp520
sbsbs(I0
I3
I2
I1
tp521
g3
(g4
g5
NtRp522
(dp523
g8
g3
(g9
g5
NtRp524
(dp525
g12
(F10.827119999999999
I0
I0
tp526
sS'n'
(I3
I1
tp527
sbsg15
I01
sg16
g17
sbs(I0
I2
I4
tp528
g3
(g4
g5
NtRp529
(dp530
g8
g3
(g9
g5
NtRp531
(dp532
g12
(F68.488
F57.005000000000003
F0
tp533
sS'n'
(I3
I1
tp534
sbsg15
I01
sg16
g3
(g9
g5
NtRp535
(dp536
g12
(F0.00045928337651530683
F0
F0
F0.99999989452938443
tp537
sS'n'
(I4
I1
tp538
sbsbs(I0
I2
I5
tp539
g3
(g4
g5
NtRp540
(dp541
g8
g3
(g9
g5
NtRp542
(dp543
g12
(F68.432000000000002
F79.403000000000006
F0
tp544
sS'n'
(I3
I1
tp545
sbsg15
I01
sg16
g3
(g9
g5
NtRp546
(dp547
g12
(F-0.0010218028327723323
F0
F0
F0.99999947795934918
tp548
sS'n'
(I4
I1
tp549
sbsbs(I0
I2
I6
tp550
g3
(g4
g5
NtRp551
(dp552
g8
g3
(g9
g5
NtRp553
(dp554
g12
(F77.293000000000006
F21.710999999999999
F0
tp555
sS'n'
(I3
I1
tp556
sbsg15
I01
sg16
g3
(g9
g5
NtRp557
(dp558
g12
(F0.70764632370405023
F0
F0
F-0.70656682666832205
tp559
sS'n'
(I4
I1
tp560
sbsbs(I0
I3
I7
tp561
g3
(g4
g5
NtRp562
(dp563
g8
g3
(g9
g5
NtRp564
(dp565
g12
(F54.549999999999997
F21.911000000000001
F0.041000000000000002
tp566
sS'n'
(I3
I1
tp567
sbsg15
I01
sg16
g3
(g9
g5
NtRp568
(dp569
g12
(F0.70648528400457877
F-0.00045496335212739263
F-0.00042191826761269093
F-0.70772746059361979
tp570
sS'n'
(I4
I1
tp571
sbsbs(I0
I1
I6
I1
tp572
g3
(g4
g5
NtRp573
(dp574
g8
g3
(g9
g5
NtRp575
(dp576
g12
(F10.827120000000001
I0
I0
tp577
sS'n'
(I3
I1
tp578
sbsg15
I01
sg16
g17
sbs(I0
I1
I4
I1
tp579
g3
(g4
g5
NtRp580
(dp581
g8
g3
(g9
g5
NtRp582
(dp583
g12
(F10.827119999999999
I0
I0
tp584
sS'n'
(I3
I1
tp585
sbsg15
I01
sg16
g17
sbs(I0
I1
I2
I1
tp586
g3
(g4
g5
NtRp587
(dp588
g8
g3
(g9
g5
NtRp589
(dp590
g12
(F10.82711999999999
I0
I0
tp591
sS'n'
(I3
I1
tp592
sbsg15
I01
sg16
g17
sbs(I0
I3
I5
I0
tp593
g3
(g4
g5
NtRp594
(dp595
g8
g3
(g9
g5
NtRp596
(dp597
g12
(F-10.827119999999999
I0
I0
tp598
sS'n'
(I3
I1
tp599
sbsg15
I01
sg16
g17
sbs(I0
I1
I0
I1
tp600
g3
(g4
g5
NtRp601
(dp602
g8
g3
(g9
g5
NtRp603
(dp604
g12
(F10.827119999999999
I0
I0
tp605
sS'n'
(I3
I1
tp606
sbsg15
I01
sg16
g17
sbs(I0
I3
I7
I0
tp607
g3
(g4
g5
NtRp608
(dp609
g8
g3
(g9
g5
NtRp610
(dp611
g12
(F-10.827120000000003
I0
I0
tp612
sS'n'
(I3
I1
tp613
sbsg15
I01
sg16
g17
sbs(I0
I1
I1
tp614
g3
(g4
g5
NtRp615
(dp616
g8
g3
(g9
g5
NtRp617
(dp618
g12
(F21.763000000000002
F10.496
F-0.052999999999999999
tp619
sS'n'
(I3
I1
tp620
sbsg15
I01
sg16
g3
(g9
g5
NtRp621
(dp622
g12
(F0.99999863823668389
F-0.0010018060897430516
F0.0012059284617581103
F0.00051540846074946134
tp623
sS'n'
(I4
I1
tp624
sbsbs(I0
I3
I1
I0
tp625
g3
(g4
g5
NtRp626
(dp627
g8
g3
(g9
g5
NtRp628
(dp629
g12
(F-10.827120000000001
I0
I0
tp630
sS'n'
(I3
I1
tp631
sbsg15
I01
sg16
g17
sbs(I0
I1
I3
tp632
g3
(g4
g5
NtRp633
(dp634
g8
g3
(g9
g5
NtRp635
(dp636
g12
(F10.488
F68.325999999999993
F0.012
tp637
sS'n'
(I3
I1
tp638
sbsg15
I01
sg16
g3
(g9
g5
NtRp639
(dp640
g12
(F0.70803505589093785
F0.00057371464924742624
F0.00030228804781597861
F-0.70617698851134625
tp641
sS'n'
(I4
I1
tp642
sbsbs(I0
I2
I5
I0
tp643
g3
(g4
g5
NtRp644
(dp645
g8
g3
(g9
g5
NtRp646
(dp647
g12
(F-10.827119999999997
I0
I0
tp648
sS'n'
(I3
I1
tp649
sbsg15
I01
sg16
g17
sbs(I0
I3
I3
I0
tp650
g3
(g4
g5
NtRp651
(dp652
g8
g3
(g9
g5
NtRp653
(dp654
g12
(F-10.827120000000001
I0
I0
tp655
sS'n'
(I3
I1
tp656
sbsg15
I01
sg16
g17
sbs(I0
I3
tp657
g3
(g4
g5
NtRp658
(dp659
g8
g3
(g9
g5
NtRp660
(dp661
g12
(F5.0999999999999996
F-6
F0
tp662
sS'n'
(I3
I1
tp663
sbsg15
I01
sg16
g3
(g9
g5
NtRp664
(dp665
g12
(F6.123233995736766e-17
F0
F0
F1
tp666
sS'n'
(I4
I1
tp667
sbsbs(I0
I1
I5
tp668
g3
(g4
g5
NtRp669
(dp670
g8
g3
(g9
g5
NtRp671
(dp672
g12
(F68.533000000000001
F79.420000000000002
F0.053999999999999999
tp673
sS'n'
(I3
I1
tp674
sbsg15
I01
sg16
g3
(g9
g5
NtRp675
(dp676
g12
(F-0.000589870063716527
F-0.0016531617415623489
F-0.00071582869775259751
F0.99999820334780576
tp677
sS'n'
(I4
I1
tp678
sbsbs(I0
I2
I1
I0
tp679
g3
(g4
g5
NtRp680
(dp681
g8
g3
(g9
g5
NtRp682
(dp683
g12
(F-10.827119999999997
I0
I0
tp684
sS'n'
(I3
I1
tp685
sbsg15
I01
sg16
g17
sbs(I0
I0
I6
tp686
g3
(g4
g5
NtRp687
(dp688
g8
g3
(g9
g5
NtRp689
(dp690
g12
(F77.801000000000002
F21.584
F0
tp691
sS'n'
(I3
I1
tp692
sbsg15
I01
sg16
g3
(g9
g5
NtRp693
(dp694
g12
(F0.70666006875873166
F0
F0
F-0.70755321158334417
tp695
sS'n'
(I4
I1
tp696
sbsbs(I0
I1
I7
tp697
g3
(g4
g5
NtRp698
(dp699
g8
g3
(g9
g5
NtRp700
(dp701
g12
(F54.801000000000002
F21.366
F0.033000000000000002
tp702
sS'n'
(I3
I1
tp703
sbsg15
I01
sg16
g3
(g9
g5
NtRp704
(dp705
g12
(F0.70644896162352522
F-0.00020683983550031382
F-0.0015939525049188713
F-0.70776216425698923
tp706
sS'n'
(I4
I1
tp707
sbsbs(I0
I2
I3
I0
tp708
g3
(g4
g5
NtRp709
(dp710
g8
g3
(g9
g5
NtRp711
(dp712
g12
(F-10.827120000000004
I0
I0
tp713
sS'n'
(I3
I1
tp714
sbsg15
I01
sg16
g17
sbs(I0
I0
I0
I0
tp715
g3
(g4
g5
NtRp716
(dp717
g8
g3
(g9
g5
NtRp718
(dp719
g12
(F-10.827119999999997
I0
I0
tp720
sS'n'
(I3
I1
tp721
sbsg15
I01
sg16
g17
sbs(I0
I1
I7
I0
tp722
g3
(g4
g5
NtRp723
(dp724
g8
g3
(g9
g5
NtRp725
(dp726
g12
(F-10.827120000000006
I0
I0
tp727
sS'n'
(I3
I1
tp728
sbsg15
I01
sg16
g17
sbs(I0
I0
I4
tp729
g3
(g4
g5
NtRp730
(dp731
g8
g3
(g9
g5
NtRp732
(dp733
g12
(F68.566999999999993
F56.863999999999997
F0
tp734
sS'n'
(I3
I1
tp735
sbsg15
I01
sg16
g3
(g9
g5
NtRp736
(dp737
g12
(F0.00064873883746147207
F0
F0
F0.9999997895689382
tp738
sS'n'
(I4
I1
tp739
sbsbs(I0
I3
I2
tp740
g3
(g4
g5
NtRp741
(dp742
g8
g3
(g9
g5
NtRp743
(dp744
g12
(F33.039000000000001
F68.572000000000003
F0.016
tp745
sS'n'
(I3
I1
tp746
sbsg15
I01
sg16
g3
(g9
g5
NtRp747
(dp748
g12
(F0.70689137061601637
F-0.00061600535477413746
F0.00016123735727826939
F-0.70732183953878269
tp749
sS'n'
(I4
I1
tp750
sbsbs(I0
I1
I5
I0
tp751
g3
(g4
g5
NtRp752
(dp753
g8
g3
(g9
g5
NtRp754
(dp755
g12
(F-10.827120000000001
I0
I0
tp756
sS'n'
(I3
I1
tp757
sbsg15
I01
sg16
g17
sbs(I0
I0
tp758
g3
(g4
g5
NtRp759
(dp760
g8
g3
(g9
g5
NtRp761
(dp762
g12
(F-4.7999999999999998
F-4.25
F0
tp763
sS'n'
(I3
I1
tp764
sbsg15
I01
sg16
g3
(g9
g5
NtRp765
(dp766
g12
(F0.70710678118654757
F0
F0
F0.70710678118654746
tp767
sS'n'
(I4
I1
tp768
sbsbs(I0
I0
I2
tp769
g3
(g4
g5
NtRp770
(dp771
g8
g3
(g9
g5
NtRp772
(dp773
g12
(F33.134999999999998
F68.356999999999999
F0
tp774
sS'n'
(I3
I1
tp775
sbsg15
I01
sg16
g3
(g9
g5
NtRp776
(dp777
g12
(F0.70758971793200187
F0
F0
F-0.70662351438153403
tp778
sS'n'
(I4
I1
tp779
sbsbs(I0
I3
I0
tp780
g3
(g4
g5
NtRp781
(dp782
g8
g3
(g9
g5
NtRp783
(dp784
g12
(F21.670999999999999
F32.898000000000003
F0.080000000000000002
tp785
sS'n'
(I3
I1
tp786
sbsg15
I01
sg16
g3
(g9
g5
NtRp787
(dp788
g12
(F0.99999839147949743
F0.00088071804393219464
F-0.00098831229512676123
F0.0012102119451492248
tp789
sS'n'
(I4
I1
tp790
sbsbs(I0
I1
I3
I0
tp791
g3
(g4
g5
NtRp792
(dp793
g8
g3
(g9
g5
NtRp794
(dp795
g12
(F-10.827119999999995
I0
I0
tp796
sS'n'
(I3
I1
tp797
sbsg15
I01
sg16
g17
sbs(I0
I0
I7
I0
tp798
g3
(g4
g5
NtRp799
(dp800
g8
g3
(g9
g5
NtRp801
(dp802
g12
(F-10.827120000000003
I0
I0
tp803
sS'n'
(I3
I1
tp804
sbsg15
I01
sg16
g17
sbs(I0
I1
I1
I0
tp805
g3
(g4
g5
NtRp806
(dp807
g8
g3
(g9
g5
NtRp808
(dp809
g12
(F-10.827120000000001
I0
I0
tp810
sS'n'
(I3
I1
tp811
sbsg15
I01
sg16
g17
sbs(I0
I3
I6
tp812
g3
(g4
g5
NtRp813
(dp814
g8
g3
(g9
g5
NtRp815
(dp816
g12
(F77.911000000000001
F21.808
F0.043999999999999997
tp817
sS'n'
(I3
I1
tp818
sbsg15
I01
sg16
g3
(g9
g5
NtRp819
(dp820
g12
(F0.70589540676513252
F-0.00090540231338825375
F-0.0002649136240580307
F-0.70831545569421983
tp821
sS'n'
(I4
I1
tp822
sbsbs(I0
I0
I5
I0
tp823
g3
(g4
g5
NtRp824
(dp825
g8
g3
(g9
g5
NtRp826
(dp827
g12
(F-10.827120000000008
I0
I0
tp828
sS'n'
(I3
I1
tp829
sbsg15
I01
sg16
g17
sbs(I0
I0
I3
I0
tp830
g3
(g4
g5
NtRp831
(dp832
g8
g3
(g9
g5
NtRp833
(dp834
g12
(F-10.827120000000003
I0
I0
tp835
sS'n'
(I3
I1
tp836
sbsg15
I01
sg16
g17
sbs(I0
I2
I4
I1
tp837
g3
(g4
g5
NtRp838
(dp839
g8
g3
(g9
g5
NtRp840
(dp841
g12
(F10.827120000000001
I0
I0
tp842
sS'n'
(I3
I1
tp843
sbsg15
I01
sg16
g17
sbs(I0
I3
I4
tp844
g3
(g4
g5
NtRp845
(dp846
g8
g3
(g9
g5
NtRp847
(dp848
g12
(F68.343000000000004
F57.213000000000001
F-0.01
tp849
sS'n'
(I3
I1
tp850
sbsg15
I01
sg16
g3
(g9
g5
NtRp851
(dp852
g12
(F-0.00057246270745413828
F-0.0020343378351717514
F-0.0036059650605510807
F0.99999126534785443
tp853
sS'n'
(I4
I1
tp854
sbsbs(I0
I0
I1
I0
tp855
g3
(g4
g5
NtRp856
(dp857
g8
g3
(g9
g5
NtRp858
(dp859
g12
(F-10.827120000000001
I0
I0
tp860
sS'n'
(I3
I1
tp861
sbsg15
I01
sg16
g17
sbs(I0
I2
I6
I1
tp862
g3
(g4
g5
NtRp863
(dp864
g8
g3
(g9
g5
NtRp865
(dp866
g12
(F10.827119999999995
I0
I0
tp867
sS'n'
(I3
I1
tp868
sbsg15
I01
sg16
g17
sbs.